; Function Attrs: nounwind uwtable
define hidden void @zif_phpdbg_break_function(ptr noundef readonly captures(none) %0, ptr readnone captures(none) %1) #0 {
  %3 = alloca ptr, align 8
  %4 = alloca i64, align 8
  call void @llvm.lifetime.start.p0(i64 8, ptr nonnull %3) #27
  call void @llvm.lifetime.start.p0(i64 8, ptr nonnull %4) #27
  %5 = getelementptr inbounds nuw i8, ptr %0, i64 44
  %6 = load i32, ptr %5, align 4, !tbaa !4
  %7 = call i32 (i32, ptr, ...) @zend_parse_parameters(i32 noundef %6, ptr noundef nonnull @.str.5, ptr noundef nonnull %3, ptr noundef nonnull %4) #27
  %8 = icmp eq i32 %7, -1
  br i1 %8, label %9, label %12

9:                                                ; preds = %2
  %10 = load ptr, ptr getelementptr inbounds nuw (i8, ptr @executor_globals, i64 960), align 8, !tbaa !7
  %11 = icmp ne ptr %10, null
  call void @llvm.assume(i1 %11)
  br label %15

12:                                               ; preds = %2
  %13 = load ptr, ptr %3, align 8, !tbaa !78
  %14 = load i64, ptr %4, align 8, !tbaa !79
  call void @phpdbg_set_breakpoint_symbol(ptr noundef %13, i64 noundef %14) #27
  br label %15

15:                                               ; preds = %12, %9
  call void @llvm.lifetime.end.p0(i64 8, ptr nonnull %4) #27
  call void @llvm.lifetime.end.p0(i64 8, ptr nonnull %3) #27
  ret void
}